target datalayout = "e-m:e-p270:32:32-p271:32:32-p272:64:64-i64:64-i128:128-f80:128-n8:16:32:64-S128"
target triple = "x86_64-pc-linux-gnu"

%struct.archive_read_filter_vtable = type { ptr, ptr, ptr }
%struct.archive_read_filter = type { i64, ptr, ptr, ptr, ptr, ptr, ptr, i32, i32, i32, ptr, i64, ptr, i64, ptr, i64, ptr, i64, i8, i8, i8 }
%struct.archive_read = type { %struct.archive, ptr, i32, i64, i64, %struct.archive_read_client, [16 x %struct.archive_read_filter_bidder], ptr, i32, i64, i32, i32, [16 x %struct.archive_format_descriptor], ptr, ptr, ptr, %struct.anon }
%struct.archive = type { i32, i32, ptr, i32, ptr, i32, i32, ptr, %struct.archive_string, ptr, i32, i32, ptr, ptr, i64, i64, i64, i8, i64 }
%struct.archive_string = type { ptr, i64, i64 }
%struct.archive_read_client = type { ptr, ptr, ptr, ptr, ptr, ptr, i32, i32, i64, ptr }
%struct.archive_read_filter_bidder = type { ptr, ptr, ptr }
%struct.archive_format_descriptor = type { ptr, ptr, ptr, ptr, ptr, ptr, ptr, ptr, ptr, ptr, ptr }
%struct.anon = type { ptr, ptr, i32, ptr, ptr }
%struct.private_data = type { %struct.bz_stream, ptr, i64, i8, i8 }
%struct.bz_stream = type { ptr, i32, i32, i32, ptr, i32, i32, i32, ptr, ptr, ptr, ptr }

@.str = private unnamed_addr constant [6 x i8] c"bzip2\00", align 1
@.str.4 = private unnamed_addr constant [44 x i8] c"Can't allocate data for bzip2 decompression\00", align 1
@bzip2_reader_vtable = internal constant %struct.archive_read_filter_vtable { ptr @bzip2_filter_read, ptr @bzip2_filter_close, ptr null }, align 8

; Function Attrs: nounwind uwtable
define internal i32 @bzip2_reader_init(ptr noundef %0) #0 {
  %2 = alloca i32, align 4
  %3 = alloca ptr, align 8
  %4 = alloca ptr, align 8
  %5 = alloca ptr, align 8
  store ptr %0, ptr %3, align 8
  %6 = load ptr, ptr %3, align 8
  %7 = getelementptr inbounds %struct.archive_read_filter, ptr %6, i32 0, i32 7
  store i32 2, ptr %7, align 8
  %8 = load ptr, ptr %3, align 8
  %9 = getelementptr inbounds %struct.archive_read_filter, ptr %8, i32 0, i32 6
  store ptr @.str, ptr %9, align 8
  %10 = call noalias ptr @calloc(i64 noundef 104, i64 noundef 1) #7
  store ptr %10, ptr %5, align 8
  %11 = call noalias ptr @malloc(i64 noundef 65536) #8
  store ptr %11, ptr %4, align 8
  %12 = load ptr, ptr %5, align 8
  %13 = icmp eq ptr %12, null
  br i1 %13, label %17, label %14

14:                                               ; preds = %1
  %15 = load ptr, ptr %4, align 8
  %16 = icmp eq ptr %15, null
  br i1 %16, label %17, label %24

17:                                               ; preds = %14, %1
  %18 = load ptr, ptr %3, align 8
  %19 = getelementptr inbounds %struct.archive_read_filter, ptr %18, i32 0, i32 3
  %20 = load ptr, ptr %19, align 8
  %21 = getelementptr inbounds %struct.archive_read, ptr %20, i32 0, i32 0
  call void (ptr, i32, ptr, ...) @archive_set_error(ptr noundef %21, i32 noundef 12, ptr noundef @.str.4)
  %22 = load ptr, ptr %4, align 8
  call void @free(ptr noundef %22) #9
  %23 = load ptr, ptr %5, align 8
  call void @free(ptr noundef %23) #9
  store i32 -30, ptr %2, align 4
  br label %35

24:                                               ; preds = %14
  %25 = load ptr, ptr %5, align 8
  %26 = load ptr, ptr %3, align 8
  %27 = getelementptr inbounds %struct.archive_read_filter, ptr %26, i32 0, i32 5
  store ptr %25, ptr %27, align 8
  %28 = load ptr, ptr %5, align 8
  %29 = getelementptr inbounds %struct.private_data, ptr %28, i32 0, i32 2
  store i64 65536, ptr %29, align 8
  %30 = load ptr, ptr %4, align 8
  %31 = load ptr, ptr %5, align 8
  %32 = getelementptr inbounds %struct.private_data, ptr %31, i32 0, i32 1
  store ptr %30, ptr %32, align 8
  %33 = load ptr, ptr %3, align 8
  %34 = getelementptr inbounds %struct.archive_read_filter, ptr %33, i32 0, i32 4
  store ptr @bzip2_reader_vtable, ptr %34, align 8
  store i32 0, ptr %2, align 4
  br label %35

35:                                               ; preds = %24, %17
  %36 = load i32, ptr %2, align 4
  ret i32 %36
}